; Function Attrs: nounwind uwtable
define noalias noundef ptr @Abc_NtkCollectLatchValues(ptr noundef readonly captures(none) %0) local_unnamed_addr #2 {
  %2 = getelementptr i8, ptr %0, i64 128
  %.val11 = load i32, ptr %2, align 8, !tbaa !28
  %3 = tail call noalias dereferenceable_or_null(16) ptr @malloc(i64 noundef 16) #13
  %4 = add i32 %.val11, -1
  %or.cond.i = icmp ult i32 %4, 15
  %spec.store.select.i = select i1 %or.cond.i, i32 16, i32 %.val11
  %5 = getelementptr inbounds nuw i8, ptr %3, i64 4
  store i32 0, ptr %5, align 4, !tbaa !44
  store i32 %spec.store.select.i, ptr %3, align 8, !tbaa !45
  %.not.i = icmp eq i32 %spec.store.select.i, 0
  br i1 %.not.i, label %Vec_IntAlloc.exit, label %6

6:                                                ; preds = %1
  %7 = sext i32 %spec.store.select.i to i64
  %8 = shl nsw i64 %7, 2
  %9 = tail call noalias ptr @malloc(i64 noundef %8) #13
  br label %Vec_IntAlloc.exit

Vec_IntAlloc.exit:                                ; preds = %1, %6
  %10 = phi ptr [ %9, %6 ], [ null, %1 ]
  %11 = getelementptr inbounds nuw i8, ptr %3, i64 8
  store ptr %10, ptr %11, align 8, !tbaa !46
  %12 = getelementptr inbounds nuw i8, ptr %0, i64 80
  %13 = load ptr, ptr %12, align 8, !tbaa !32
  %14 = getelementptr i8, ptr %13, i64 4
  %.val913 = load i32, ptr %14, align 4, !tbaa !33
  %15 = icmp sgt i32 %.val913, 0
  br i1 %15, label %.lr.ph, label %.critedge

.lr.ph:                                           ; preds = %Vec_IntAlloc.exit, %48
  %16 = phi ptr [ %49, %48 ], [ %13, %Vec_IntAlloc.exit ]
  %17 = phi ptr [ %.pre.i17, %48 ], [ %10, %Vec_IntAlloc.exit ]
  %indvars.iv = phi i64 [ %indvars.iv.next, %48 ], [ 0, %Vec_IntAlloc.exit ]
  %18 = getelementptr i8, ptr %16, i64 8
  %.val10.val = load ptr, ptr %18, align 8, !tbaa !29
  %19 = getelementptr inbounds nuw ptr, ptr %.val10.val, i64 %indvars.iv
  %20 = load ptr, ptr %19, align 8, !tbaa !31
  %21 = getelementptr i8, ptr %20, i64 20
  %.val = load i32, ptr %21, align 4
  %22 = and i32 %.val, 15
  %.not = icmp eq i32 %22, 8
  br i1 %.not, label %23, label %48

23:                                               ; preds = %.lr.ph
  %24 = getelementptr i8, ptr %20, i64 56
  %.val12 = load ptr, ptr %24, align 8, !tbaa !42
  %25 = icmp eq ptr %.val12, inttoptr (i64 2 to ptr)
  %26 = zext i1 %25 to i32
  %27 = load i32, ptr %5, align 4, !tbaa !44
  %28 = load i32, ptr %3, align 8, !tbaa !45
  %29 = icmp eq i32 %27, %28
  br i1 %29, label %30, label %Vec_IntPush.exit

30:                                               ; preds = %23
  %31 = icmp slt i32 %27, 16
  br i1 %31, label %32, label %37

32:                                               ; preds = %30
  %.not9.i.i = icmp eq ptr %17, null
  br i1 %.not9.i.i, label %35, label %33

33:                                               ; preds = %32
  %34 = tail call dereferenceable_or_null(64) ptr @realloc(ptr noundef nonnull %17, i64 noundef 64) #14
  br label %Vec_IntPush.exit.sink.split

35:                                               ; preds = %32
  %36 = tail call noalias dereferenceable_or_null(64) ptr @malloc(i64 noundef 64) #13
  br label %Vec_IntPush.exit.sink.split

37:                                               ; preds = %30
  %38 = shl nuw nsw i32 %27, 1
  %.not9.i9.i = icmp eq ptr %17, null
  %39 = zext nneg i32 %38 to i64
  %40 = shl nuw nsw i64 %39, 2
  br i1 %.not9.i9.i, label %43, label %41

41:                                               ; preds = %37
  %42 = tail call ptr @realloc(ptr noundef nonnull %17, i64 noundef %40) #14
  br label %Vec_IntPush.exit.sink.split

43:                                               ; preds = %37
  %44 = tail call noalias ptr @malloc(i64 noundef %40) #13
  br label %Vec_IntPush.exit.sink.split

Vec_IntPush.exit.sink.split:                      ; preds = %41, %43, %33, %35
  %.sink19 = phi ptr [ %34, %33 ], [ %36, %35 ], [ %42, %41 ], [ %44, %43 ]
  %.sink = phi i32 [ 16, %33 ], [ 16, %35 ], [ %38, %41 ], [ %38, %43 ]
  store ptr %.sink19, ptr %11, align 8, !tbaa !46
  store i32 %.sink, ptr %3, align 8, !tbaa !45
  br label %Vec_IntPush.exit

Vec_IntPush.exit:                                 ; preds = %Vec_IntPush.exit.sink.split, %23
  %.pre.i18 = phi ptr [ %17, %23 ], [ %.sink19, %Vec_IntPush.exit.sink.split ]
  %45 = add nsw i32 %27, 1
  store i32 %45, ptr %5, align 4, !tbaa !44
  %46 = sext i32 %27 to i64
  %47 = getelementptr inbounds i32, ptr %.pre.i18, i64 %46
  store i32 %26, ptr %47, align 4, !tbaa !28
  %.pre = load ptr, ptr %12, align 8, !tbaa !32
  br label %48

48:                                               ; preds = %Vec_IntPush.exit, %.lr.ph
  %49 = phi ptr [ %.pre, %Vec_IntPush.exit ], [ %16, %.lr.ph ]
  %.pre.i17 = phi ptr [ %.pre.i18, %Vec_IntPush.exit ], [ %17, %.lr.ph ]
  %indvars.iv.next = add nuw nsw i64 %indvars.iv, 1
  %50 = getelementptr i8, ptr %49, i64 4
  %.val9 = load i32, ptr %50, align 4, !tbaa !33
  %51 = sext i32 %.val9 to i64
  %52 = icmp slt i64 %indvars.iv.next, %51
  br i1 %52, label %.lr.ph, label %.critedge, !llvm.loop !47

.critedge:                                        ; preds = %48, %Vec_IntAlloc.exit
  ret ptr %3
}